; Function Attrs: inlinehint mustprogress nofree nounwind willreturn uwtable
define internal fastcc range(i32 -32, 1) i32 @pmix_bfrops_base_tma_copy_dkstats(ptr noundef writeonly captures(none) %0, ptr noundef readonly captures(none) %1) unnamed_addr #15 {
  %calloc.i = tail call dereferenceable_or_null(96) ptr @calloc(i64 1, i64 96)
  %3 = icmp eq ptr %calloc.i, null
  br i1 %3, label %41, label %4, !prof !116

4:                                                ; preds = %2
  store ptr %calloc.i, ptr %0, align 8, !tbaa !26
  %5 = load ptr, ptr %1, align 8, !tbaa !108
  %.not.i = icmp eq ptr %5, null
  br i1 %.not.i, label %pmix_bfrops_base_tma_populate_dkstats.exit, label %6

6:                                                ; preds = %4
  %7 = tail call noalias ptr @strdup(ptr noundef nonnull readonly %5) #24
  store ptr %7, ptr %calloc.i, align 8, !tbaa !108
  br label %pmix_bfrops_base_tma_populate_dkstats.exit

pmix_bfrops_base_tma_populate_dkstats.exit:       ; preds = %4, %6
  %8 = getelementptr inbounds nuw i8, ptr %1, i64 8
  %9 = load i64, ptr %8, align 8, !tbaa !262
  %10 = getelementptr inbounds nuw i8, ptr %calloc.i, i64 8
  store i64 %9, ptr %10, align 8, !tbaa !262
  %11 = getelementptr inbounds nuw i8, ptr %1, i64 16
  %12 = load i64, ptr %11, align 8, !tbaa !263
  %13 = getelementptr inbounds nuw i8, ptr %calloc.i, i64 16
  store i64 %12, ptr %13, align 8, !tbaa !263
  %14 = getelementptr inbounds nuw i8, ptr %1, i64 24
  %15 = load i64, ptr %14, align 8, !tbaa !264
  %16 = getelementptr inbounds nuw i8, ptr %calloc.i, i64 24
  store i64 %15, ptr %16, align 8, !tbaa !264
  %17 = getelementptr inbounds nuw i8, ptr %1, i64 32
  %18 = load i64, ptr %17, align 8, !tbaa !265
  %19 = getelementptr inbounds nuw i8, ptr %calloc.i, i64 32
  store i64 %18, ptr %19, align 8, !tbaa !265
  %20 = getelementptr inbounds nuw i8, ptr %1, i64 40
  %21 = load i64, ptr %20, align 8, !tbaa !266
  %22 = getelementptr inbounds nuw i8, ptr %calloc.i, i64 40
  store i64 %21, ptr %22, align 8, !tbaa !266
  %23 = getelementptr inbounds nuw i8, ptr %1, i64 48
  %24 = load i64, ptr %23, align 8, !tbaa !267
  %25 = getelementptr inbounds nuw i8, ptr %calloc.i, i64 48
  store i64 %24, ptr %25, align 8, !tbaa !267
  %26 = getelementptr inbounds nuw i8, ptr %1, i64 56
  %27 = load i64, ptr %26, align 8, !tbaa !268
  %28 = getelementptr inbounds nuw i8, ptr %calloc.i, i64 56
  store i64 %27, ptr %28, align 8, !tbaa !268
  %29 = getelementptr inbounds nuw i8, ptr %1, i64 64
  %30 = load i64, ptr %29, align 8, !tbaa !269
  %31 = getelementptr inbounds nuw i8, ptr %calloc.i, i64 64
  store i64 %30, ptr %31, align 8, !tbaa !269
  %32 = getelementptr inbounds nuw i8, ptr %1, i64 72
  %33 = load i64, ptr %32, align 8, !tbaa !270
  %34 = getelementptr inbounds nuw i8, ptr %calloc.i, i64 72
  store i64 %33, ptr %34, align 8, !tbaa !270
  %35 = getelementptr inbounds nuw i8, ptr %1, i64 80
  %36 = load i64, ptr %35, align 8, !tbaa !271
  %37 = getelementptr inbounds nuw i8, ptr %calloc.i, i64 80
  store i64 %36, ptr %37, align 8, !tbaa !271
  %38 = getelementptr inbounds nuw i8, ptr %1, i64 88
  %39 = load i64, ptr %38, align 8, !tbaa !272
  %40 = getelementptr inbounds nuw i8, ptr %calloc.i, i64 88
  store i64 %39, ptr %40, align 8, !tbaa !272
  br label %41

41:                                               ; preds = %2, %pmix_bfrops_base_tma_populate_dkstats.exit
  %.0 = phi i32 [ 0, %pmix_bfrops_base_tma_populate_dkstats.exit ], [ -32, %2 ]
  ret i32 %.0
}